target datalayout = "e-m:e-p270:32:32-p271:32:32-p272:64:64-i64:64-i128:128-f80:128-n8:16:32:64-S128"
target triple = "x86_64-unknown-linux-gnu"

%struct.BdrvChild = type { ptr, ptr, ptr, i32, ptr, i64, i64, i8, i8, %struct.anon.12, %struct.anon.13 }
%struct.anon.12 = type { ptr, ptr }
%struct.anon.13 = type { ptr, ptr }

@.str = private unnamed_addr constant [12 x i8] c"buf != NULL\00", align 1
@.str.1 = private unnamed_addr constant [21 x i8] c"../qemu/block/vhdx.c\00", align 1
@__PRETTY_FUNCTION__.vhdx_update_checksum = private unnamed_addr constant [54 x i8] c"uint32_t vhdx_update_checksum(uint8_t *, size_t, int)\00", align 1
@.str.2 = private unnamed_addr constant [34 x i8] c"size > (crc_offset + sizeof(crc))\00", align 1
@.str.5 = private unnamed_addr constant [16 x i8] c"bs_file != NULL\00", align 1
@__PRETTY_FUNCTION__.vhdx_write_header = private unnamed_addr constant [66 x i8] c"int vhdx_write_header(BdrvChild *, VHDXHeader *, uint64_t, _Bool)\00", align 1
@.str.6 = private unnamed_addr constant [12 x i8] c"hdr != NULL\00", align 1

; Function Attrs: nounwind sspstrong uwtable
define internal i32 @cpu_to_le32(i32 noundef %v) #0 {
entry:
  %v.addr = alloca i32, align 4
  store i32 %v, ptr %v.addr, align 4
  %0 = load i32, ptr %v.addr, align 4
  ret i32 %0
}

; Function Attrs: nounwind sspstrong uwtable
define dso_local i32 @vhdx_update_checksum(ptr noundef %buf, i64 noundef %size, i32 noundef %crc_offset) #0 {
entry:
  %buf.addr = alloca ptr, align 8
  %size.addr = alloca i64, align 8
  %crc_offset.addr = alloca i32, align 4
  %crc = alloca i32, align 4
  store ptr %buf, ptr %buf.addr, align 8
  store i64 %size, ptr %size.addr, align 8
  store i32 %crc_offset, ptr %crc_offset.addr, align 4
  %0 = load ptr, ptr %buf.addr, align 8
  %cmp = icmp ne ptr %0, null
  br i1 %cmp, label %if.then, label %if.else

if.then:                                          ; preds = %entry
  br label %if.end

if.else:                                          ; preds = %entry
  call void @__assert_fail(ptr noundef @.str, ptr noundef @.str.1, i32 noundef 156, ptr noundef @__PRETTY_FUNCTION__.vhdx_update_checksum) #10
  unreachable

if.end:                                           ; preds = %if.then
  %1 = load i64, ptr %size.addr, align 8
  %2 = load i32, ptr %crc_offset.addr, align 4
  %conv = sext i32 %2 to i64
  %add = add i64 %conv, 4
  %cmp1 = icmp ugt i64 %1, %add
  br i1 %cmp1, label %if.then3, label %if.else4

if.then3:                                         ; preds = %if.end
  br label %if.end5

if.else4:                                         ; preds = %if.end
  call void @__assert_fail(ptr noundef @.str.2, ptr noundef @.str.1, i32 noundef 157, ptr noundef @__PRETTY_FUNCTION__.vhdx_update_checksum) #10
  unreachable

if.end5:                                          ; preds = %if.then3
  %3 = load ptr, ptr %buf.addr, align 8
  %4 = load i32, ptr %crc_offset.addr, align 4
  %idx.ext = sext i32 %4 to i64
  %add.ptr = getelementptr i8, ptr %3, i64 %idx.ext
  call void @llvm.memset.p0.i64(ptr align 1 %add.ptr, i8 0, i64 4, i1 false)
  %5 = load ptr, ptr %buf.addr, align 8
  %6 = load i64, ptr %size.addr, align 8
  %conv6 = trunc i64 %6 to i32
  %call = call i32 @crc32c(i32 noundef -1, ptr noundef %5, i32 noundef %conv6)
  store i32 %call, ptr %crc, align 4
  %7 = load i32, ptr %crc, align 4
  %call7 = call i32 @cpu_to_le32(i32 noundef %7)
  store i32 %call7, ptr %crc, align 4
  %8 = load ptr, ptr %buf.addr, align 8
  %9 = load i32, ptr %crc_offset.addr, align 4
  %idx.ext8 = sext i32 %9 to i64
  %add.ptr9 = getelementptr i8, ptr %8, i64 %idx.ext8
  call void @llvm.memcpy.p0.p0.i64(ptr align 1 %add.ptr9, ptr align 4 %crc, i64 4, i1 false)
  %10 = load i32, ptr %crc, align 4
  ret i32 %10
}

; Function Attrs: nounwind sspstrong uwtable
define internal i32 @vhdx_write_header(ptr noundef %file, ptr noundef %hdr, i64 noundef %offset, i1 noundef zeroext %read) #0 {
entry:
  %file.addr = alloca ptr, align 8
  %hdr.addr = alloca ptr, align 8
  %offset.addr = alloca i64, align 8
  %read.addr = alloca i8, align 1
  %bs_file = alloca ptr, align 8
  %buffer = alloca ptr, align 8
  %ret = alloca i32, align 4
  %header_le = alloca ptr, align 8
  store ptr %file, ptr %file.addr, align 8
  store ptr %hdr, ptr %hdr.addr, align 8
  store i64 %offset, ptr %offset.addr, align 8
  %frombool = zext i1 %read to i8
  store i8 %frombool, ptr %read.addr, align 1
  %0 = load ptr, ptr %file.addr, align 8
  %bs = getelementptr inbounds %struct.BdrvChild, ptr %0, i32 0, i32 0
  %1 = load ptr, ptr %bs, align 8
  store ptr %1, ptr %bs_file, align 8
  store ptr null, ptr %buffer, align 8
  %2 = load ptr, ptr %bs_file, align 8
  %cmp = icmp ne ptr %2, null
  br i1 %cmp, label %if.then, label %if.else

if.then:                                          ; preds = %entry
  br label %if.end

if.else:                                          ; preds = %entry
  call void @__assert_fail(ptr noundef @.str.5, ptr noundef @.str.1, i32 noundef 319, ptr noundef @__PRETTY_FUNCTION__.vhdx_write_header) #10
  unreachable

if.end:                                           ; preds = %if.then
  %3 = load ptr, ptr %hdr.addr, align 8
  %cmp1 = icmp ne ptr %3, null
  br i1 %cmp1, label %if.then2, label %if.else3

if.then2:                                         ; preds = %if.end
  br label %if.end4

if.else3:                                         ; preds = %if.end
  call void @__assert_fail(ptr noundef @.str.6, ptr noundef @.str.1, i32 noundef 320, ptr noundef @__PRETTY_FUNCTION__.vhdx_write_header) #10
  unreachable

if.end4:                                          ; preds = %if.then2
  %4 = load ptr, ptr %bs_file, align 8
  %call = call ptr @qemu_blockalign(ptr noundef %4, i64 noundef 4096)
  store ptr %call, ptr %buffer, align 8
  %5 = load i8, ptr %read.addr, align 1
  %tobool = trunc i8 %5 to i1
  br i1 %tobool, label %if.then5, label %if.else10

if.then5:                                         ; preds = %if.end4
  %6 = load ptr, ptr %file.addr, align 8
  %7 = load i64, ptr %offset.addr, align 8
  %8 = load ptr, ptr %buffer, align 8
  %call6 = call i32 @bdrv_pread(ptr noundef %6, i64 noundef %7, i64 noundef 4096, ptr noundef %8, i32 noundef 0)
  store i32 %call6, ptr %ret, align 4
  %9 = load i32, ptr %ret, align 4
  %cmp7 = icmp slt i32 %9, 0
  br i1 %cmp7, label %if.then8, label %if.end9

if.then8:                                         ; preds = %if.then5
  br label %exit

if.end9:                                          ; preds = %if.then5
  br label %if.end11

if.else10:                                        ; preds = %if.end4
  %10 = load ptr, ptr %buffer, align 8
  call void @llvm.memset.p0.i64(ptr align 1 %10, i8 0, i64 4096, i1 false)
  br label %if.end11

if.end11:                                         ; preds = %if.else10, %if.end9
  %11 = load ptr, ptr %buffer, align 8
  store ptr %11, ptr %header_le, align 8
  %12 = load ptr, ptr %header_le, align 8
  %13 = load ptr, ptr %hdr.addr, align 8
  call void @llvm.memcpy.p0.p0.i64(ptr align 1 %12, ptr align 1 %13, i64 80, i1 false)
  %14 = load ptr, ptr %hdr.addr, align 8
  %15 = load ptr, ptr %header_le, align 8
  call void @vhdx_header_le_export(ptr noundef %14, ptr noundef %15)
  %16 = load ptr, ptr %buffer, align 8
  %call12 = call i32 @vhdx_update_checksum(ptr noundef %16, i64 noundef 4096, i32 noundef 4)
  %17 = load ptr, ptr %file.addr, align 8
  %18 = load i64, ptr %offset.addr, align 8
  %19 = load ptr, ptr %header_le, align 8
  %call13 = call i32 @bdrv_pwrite_sync(ptr noundef %17, i64 noundef %18, i64 noundef 80, ptr noundef %19, i32 noundef 0)
  store i32 %call13, ptr %ret, align 4
  br label %exit

exit:                                             ; preds = %if.end11, %if.then8
  %20 = load ptr, ptr %buffer, align 8
  call void @qemu_vfree(ptr noundef %20)
  %21 = load i32, ptr %ret, align 4
  ret i32 %21
}