; Function Attrs: nounwind sspstrong uwtable
define internal fastcc i32 @vhdx_write_header(ptr noundef %file, ptr noundef %hdr, i64 noundef range(i64 65536, 131073) %offset, i1 noundef zeroext %read) unnamed_addr #0 {
entry:
  %0 = load ptr, ptr %file, align 8
  %cmp.not = icmp eq ptr %0, null
  br i1 %cmp.not, label %if.else, label %if.end

if.else:                                          ; preds = %entry
  tail call void @__assert_fail(ptr noundef nonnull @.str.5, ptr noundef nonnull @.str.1, i32 noundef 319, ptr noundef nonnull @__PRETTY_FUNCTION__.vhdx_write_header) #16
  unreachable

if.end:                                           ; preds = %entry
  %cmp1.not = icmp eq ptr %hdr, null
  br i1 %cmp1.not, label %if.else3, label %if.end4

if.else3:                                         ; preds = %if.end
  tail call void @__assert_fail(ptr noundef nonnull @.str.6, ptr noundef nonnull @.str.1, i32 noundef 320, ptr noundef nonnull @__PRETTY_FUNCTION__.vhdx_write_header) #16
  unreachable

if.end4:                                          ; preds = %if.end
  %call = tail call ptr @qemu_blockalign(ptr noundef nonnull %0, i64 noundef 4096) #17
  br i1 %read, label %if.then5, label %if.else10

if.then5:                                         ; preds = %if.end4
  %call6 = tail call i32 @bdrv_pread(ptr noundef nonnull %file, i64 noundef %offset, i64 noundef 4096, ptr noundef %call, i32 noundef 0) #17
  %cmp7 = icmp slt i32 %call6, 0
  br i1 %cmp7, label %exit, label %vhdx_update_checksum.exit

if.else10:                                        ; preds = %if.end4
  tail call void @llvm.memset.p0.i64(ptr noundef nonnull align 1 dereferenceable(4096) %call, i8 0, i64 4096, i1 false)
  br label %vhdx_update_checksum.exit

vhdx_update_checksum.exit:                        ; preds = %if.else10, %if.then5
  tail call void @llvm.memcpy.p0.p0.i64(ptr noundef nonnull align 1 dereferenceable(80) %call, ptr noundef nonnull align 1 dereferenceable(80) %hdr, i64 80, i1 false)
  tail call void @vhdx_header_le_export(ptr noundef nonnull %hdr, ptr noundef nonnull %call) #17
  %add.ptr.i = getelementptr i8, ptr %call, i64 4
  store i32 0, ptr %add.ptr.i, align 1
  %call.i = tail call i32 @crc32c(i32 noundef -1, ptr noundef nonnull %call, i32 noundef 4096) #17
  store i32 %call.i, ptr %add.ptr.i, align 1
  %call13 = tail call i32 @bdrv_pwrite_sync(ptr noundef nonnull %file, i64 noundef %offset, i64 noundef 80, ptr noundef nonnull %call, i32 noundef 0) #17
  br label %exit

exit:                                             ; preds = %if.then5, %vhdx_update_checksum.exit
  %ret.0 = phi i32 [ %call6, %if.then5 ], [ %call13, %vhdx_update_checksum.exit ]
  tail call void @qemu_vfree(ptr noundef %call) #17
  ret i32 %ret.0
}